; ModuleID = '28/1711.c'
source_filename = "28/1711.c"
target datalayout = "e-m:e-p270:32:32-p271:32:32-p272:64:64-i64:64-f80:128-n8:16:32:64-S128"
target triple = "x86_64-pc-linux-gnu"

@.str = private unnamed_addr constant [4 x i8] c"%d,\00", align 1
@.str.1 = private unnamed_addr constant [3 x i8] c"%d\00", align 1

; Function Attrs: noinline nounwind uwtable
define dso_local i32 @main() #0 {
  %1 = alloca i32, align 4
  %2 = alloca i8*, align 8
  %3 = alloca i32, align 4
  %4 = alloca [128 x i32], align 16
  %5 = alloca i32, align 4
  %6 = alloca i32, align 4
  %7 = alloca i32, align 4
  %8 = alloca i8*, align 8
  store i32 0, i32* %1, align 4
  %9 = bitcast [128 x i32]* %4 to i8*
  call void @llvm.memset.p0i8.i64(i8* align 16 %9, i8 0, i64 512, i1 false)
  store i32 0, i32* %5, align 4
  store i32 1, i32* %7, align 4
  %10 = call noalias i8* @malloc(i64 1000) #4
  store i8* %10, i8** %2, align 8
  %11 = load i8*, i8** %2, align 8
  %12 = call i32 (i8*, ...) bitcast (i32 (...)* @gets to i32 (i8*, ...)*)(i8* %11)
  %13 = load i8*, i8** %2, align 8
  store i8* %13, i8** %8, align 8
  br label %14

14:                                               ; preds = %34, %0
  %15 = load i8*, i8** %8, align 8
  %16 = load i8, i8* %15, align 1
  %17 = sext i8 %16 to i32
  %18 = icmp ne i32 %17, 0
  br i1 %18, label %19, label %37

19:                                               ; preds = %14
  %20 = load i8*, i8** %8, align 8
  %21 = getelementptr inbounds i8, i8* %20, i64 -1
  %22 = load i8, i8* %21, align 1
  %23 = sext i8 %22 to i32
  %24 = icmp eq i32 %23, 32
  br i1 %24, label %25, label %33

25:                                               ; preds = %19
  %26 = load i8*, i8** %8, align 8
  %27 = load i8, i8* %26, align 1
  %28 = sext i8 %27 to i32
  %29 = icmp ne i32 %28, 32
  br i1 %29, label %30, label %33

30:                                               ; preds = %25
  %31 = load i32, i32* %7, align 4
  %32 = add nsw i32 %31, 1
  store i32 %32, i32* %7, align 4
  br label %33

33:                                               ; preds = %30, %25, %19
  br label %34

34:                                               ; preds = %33
  %35 = load i8*, i8** %8, align 8
  %36 = getelementptr inbounds i8, i8* %35, i32 1
  store i8* %36, i8** %8, align 8
  br label %14

37:                                               ; preds = %14
  %38 = load i8*, i8** %2, align 8
  store i8* %38, i8** %8, align 8
  br label %39

39:                                               ; preds = %82, %37
  %40 = load i8*, i8** %8, align 8
  %41 = load i8, i8* %40, align 1
  %42 = sext i8 %41 to i32
  %43 = icmp ne i32 %42, 0
  br i1 %43, label %44, label %85

44:                                               ; preds = %39
  %45 = load i8*, i8** %8, align 8
  %46 = load i8, i8* %45, align 1
  %47 = sext i8 %46 to i32
  %48 = icmp ne i32 %47, 32
  br i1 %48, label %49, label %56

49:                                               ; preds = %44
  %50 = load i32, i32* %5, align 4
  %51 = icmp eq i32 %50, 0
  br i1 %51, label %52, label %56

52:                                               ; preds = %49
  %53 = getelementptr inbounds [128 x i32], [128 x i32]* %4, i64 0, i64 0
  %54 = load i32, i32* %53, align 16
  %55 = add nsw i32 %54, 1
  store i32 %55, i32* %53, align 16
  br label %82

56:                                               ; preds = %49, %44
  %57 = load i8*, i8** %8, align 8
  %58 = load i8, i8* %57, align 1
  %59 = sext i8 %58 to i32
  %60 = icmp ne i32 %59, 32
  br i1 %60, label %61, label %67

61:                                               ; preds = %56
  %62 = load i32, i32* %5, align 4
  %63 = sext i32 %62 to i64
  %64 = getelementptr inbounds [128 x i32], [128 x i32]* %4, i64 0, i64 %63
  %65 = load i32, i32* %64, align 4
  %66 = add nsw i32 %65, 1
  store i32 %66, i32* %64, align 4
  br label %67

67:                                               ; preds = %61, %56
  %68 = load i8*, i8** %8, align 8
  %69 = load i8, i8* %68, align 1
  %70 = sext i8 %69 to i32
  %71 = icmp eq i32 %70, 32
  br i1 %71, label %72, label %81

72:                                               ; preds = %67
  %73 = load i8*, i8** %8, align 8
  %74 = getelementptr inbounds i8, i8* %73, i64 1
  %75 = load i8, i8* %74, align 1
  %76 = sext i8 %75 to i32
  %77 = icmp ne i32 %76, 32
  br i1 %77, label %78, label %81

78:                                               ; preds = %72
  %79 = load i32, i32* %5, align 4
  %80 = add nsw i32 %79, 1
  store i32 %80, i32* %5, align 4
  br label %81

81:                                               ; preds = %78, %72, %67
  br label %82

82:                                               ; preds = %81, %52
  %83 = load i8*, i8** %8, align 8
  %84 = getelementptr inbounds i8, i8* %83, i32 1
  store i8* %84, i8** %8, align 8
  br label %39

85:                                               ; preds = %39
  store i32 0, i32* %6, align 4
  br label %86

86:                                               ; preds = %97, %85
  %87 = load i32, i32* %6, align 4
  %88 = load i32, i32* %7, align 4
  %89 = sub nsw i32 %88, 1
  %90 = icmp slt i32 %87, %89
  br i1 %90, label %91, label %100

91:                                               ; preds = %86
  %92 = load i32, i32* %6, align 4
  %93 = sext i32 %92 to i64
  %94 = getelementptr inbounds [128 x i32], [128 x i32]* %4, i64 0, i64 %93
  %95 = load i32, i32* %94, align 4
  %96 = call i32 (i8*, ...) @printf(i8* getelementptr inbounds ([4 x i8], [4 x i8]* @.str, i64 0, i64 0), i32 %95)
  br label %97

97:                                               ; preds = %91
  %98 = load i32, i32* %6, align 4
  %99 = add nsw i32 %98, 1
  store i32 %99, i32* %6, align 4
  br label %86

100:                                              ; preds = %86
  %101 = load i32, i32* %6, align 4
  %102 = sext i32 %101 to i64
  %103 = getelementptr inbounds [128 x i32], [128 x i32]* %4, i64 0, i64 %102
  %104 = load i32, i32* %103, align 4
  %105 = call i32 (i8*, ...) @printf(i8* getelementptr inbounds ([3 x i8], [3 x i8]* @.str.1, i64 0, i64 0), i32 %104)
  %106 = load i32, i32* %1, align 4
  ret i32 %106
}

; Function Attrs: argmemonly nounwind willreturn
declare void @llvm.memset.p0i8.i64(i8* nocapture writeonly, i8, i64, i1 immarg) #1

; Function Attrs: nounwind
declare dso_local noalias i8* @malloc(i64) #2

declare dso_local i32 @gets(...) #3

declare dso_local i32 @printf(i8*, ...) #3


!llvm.module.flags = !{!0}
!llvm.ident = !{!1}

!0 = !{i32 1, !"wchar_size", i32 4}
!1 = !{!"clang version 10.0.0-4ubuntu1 "}
